; Function Attrs: mustprogress uwtable
define hidden void @_ZNK19OpenColorIO_v2_4dev18Lut1DTransformImpl18createEditableCopyEv(ptr noalias nocapture writeonly sret(%"class.std::shared_ptr.13") align 8 %agg.result, ptr noundef nonnull align 8 dereferenceable(376) %this) unnamed_addr #3 align 2 personality ptr @__gxx_personality_v0 {
entry:
  %transform = alloca %"class.std::shared_ptr", align 8
  call void @_ZN19OpenColorIO_v2_4dev14Lut1DTransform6CreateEv(ptr nonnull sret(%"class.std::shared_ptr") align 8 %transform)
  %m_data.i = getelementptr inbounds i8, ptr %this, i64 8
  %0 = load ptr, ptr %transform, align 8, !nonnull !4, !noundef !4
  %1 = tail call ptr @__dynamic_cast(ptr nonnull %0, ptr nonnull @_ZTIN19OpenColorIO_v2_4dev14Lut1DTransformE, ptr nonnull @_ZTIN19OpenColorIO_v2_4dev18Lut1DTransformImplE, i64 0) #18
  %m_data.i1 = getelementptr inbounds i8, ptr %1, i64 8
  %call.i2 = invoke noundef nonnull align 8 dereferenceable(168) ptr @_ZN19OpenColorIO_v2_4dev6OpDataaSERKS0_(ptr noundef nonnull align 8 dereferenceable(168) %m_data.i1, ptr noundef nonnull align 8 dereferenceable(168) %m_data.i)
          to label %call.i.noexc unwind label %lpad

call.i.noexc:                                     ; preds = %entry
  %m_interpolation.i = getelementptr inbounds i8, ptr %this, i64 176
  %2 = load i32, ptr %m_interpolation.i, align 8
  %m_interpolation2.i = getelementptr inbounds i8, ptr %1, i64 176
  store i32 %2, ptr %m_interpolation2.i, align 8
  %m_length.i.i.i = getelementptr inbounds i8, ptr %1, i64 192
  %m_length2.i.i.i = getelementptr inbounds i8, ptr %this, i64 192
  tail call void @llvm.memcpy.p0.p0.i64(ptr noundef nonnull align 8 dereferenceable(16) %m_length.i.i.i, ptr noundef nonnull align 8 dereferenceable(16) %m_length2.i.i.i, i64 16, i1 false)
  %m_data.i.i.i = getelementptr inbounds i8, ptr %1, i64 208
  %m_data3.i.i.i = getelementptr inbounds i8, ptr %this, i64 208
  %call4.i.i.i3 = invoke noundef nonnull align 8 dereferenceable(24) ptr @_ZNSt6vectorIfSaIfEEaSERKS1_(ptr noundef nonnull align 8 dereferenceable(24) %m_data.i.i.i, ptr noundef nonnull align 8 dereferenceable(24) %m_data3.i.i.i)
          to label %_ZNSt10shared_ptrIN19OpenColorIO_v2_4dev14Lut1DTransformEED2Ev.exit unwind label %lpad

_ZNSt10shared_ptrIN19OpenColorIO_v2_4dev14Lut1DTransformEED2Ev.exit: ; preds = %call.i.noexc
  %m_halfFlags.i = getelementptr inbounds i8, ptr %1, i64 232
  %m_halfFlags5.i = getelementptr inbounds i8, ptr %this, i64 232
  tail call void @llvm.memcpy.p0.p0.i64(ptr noundef nonnull align 8 dereferenceable(140) %m_halfFlags.i, ptr noundef nonnull align 8 dereferenceable(140) %m_halfFlags5.i, i64 140, i1 false)
  store ptr %0, ptr %agg.result, align 8
  %_M_refcount.i.i = getelementptr inbounds i8, ptr %agg.result, i64 8
  %_M_refcount4.i.i = getelementptr inbounds i8, ptr %transform, i64 8
  %3 = load ptr, ptr %_M_refcount4.i.i, align 8
  store ptr %3, ptr %_M_refcount.i.i, align 8
  ret void

lpad:                                             ; preds = %call.i.noexc, %entry
  %4 = landingpad { ptr, i32 }
          cleanup
  call void @_ZNSt10shared_ptrIN19OpenColorIO_v2_4dev14Lut1DTransformEED2Ev(ptr noundef nonnull align 8 dereferenceable(16) %transform) #18
  resume { ptr, i32 } %4
}